; Function Attrs: mustprogress nounwind uwtable
define hidden void @_ZN11tbv_managerD2Ev(ptr noundef nonnull align 8 dereferenceable(552) %0) unnamed_addr #4 align 2 personality ptr @__gxx_personality_v0 {
  %2 = getelementptr inbounds nuw i8, ptr %0, i64 544
  %3 = load ptr, ptr %2, align 8, !tbaa !3
  %.not.i.i = icmp eq ptr %3, null
  br i1 %.not.i.i, label %_ZN6vectorIP3tbvLb0EjED2Ev.exit, label %4

4:                                                ; preds = %1
  %5 = getelementptr inbounds i8, ptr %3, i64 -8
  invoke void @_ZN6memory10deallocateEPv(ptr noundef nonnull %5)
          to label %_ZN6vectorIP3tbvLb0EjED2Ev.exit unwind label %6

6:                                                ; preds = %4
  %7 = landingpad { ptr, i32 }
          catch ptr null
  %8 = extractvalue { ptr, i32 } %7, 0
  tail call void @__clang_call_terminate(ptr %8) #24
  unreachable

_ZN6vectorIP3tbvLb0EjED2Ev.exit:                  ; preds = %1, %4
  tail call void @_ZN22small_object_allocatorD1Ev(ptr noundef nonnull align 8 dereferenceable(540) %0) #25
  ret void
}